Certificate:
    Data:
        Version: 3 (0x2)
        Serial Number: 1 (0x1)
        Signature Algorithm: sha1WithRSAEncryption
        Issuer: C=US, ST=Florida, L=Orlando, O=Gamma Consulting, OU=CA HQ, CN=tjjackson/emailAddress=sca@gc.com
        Validity
            Not Before: Mar  6 17:43:30 2012 GMT
            Not After : Mar  6 17:43:30 2013 GMT
        Subject: C=US, ST=Florida, O=Gamma Consulting, OU=Server Room, CN=tjjackson/emailAddress=sr@gc.com
        Subject Public Key Info:
            Public Key Algorithm: rsaEncryption
                Public-Key: (2048 bit)
                Modulus:
                    00:f1:64:79:4d:e9:85:71:e1:29:7e:cb:f9:7c:2b:
                    d8:68:6a:b5:67:43:1f:e6:12:b1:b1:19:82:e9:2f:
                    4a:5f:c7:81:e4:27:72:fd:54:de:dd:d5:4f:d7:89:
                    0b:df:8d:26:f3:d9:bd:2a:b8:ca:7c:ed:a8:61:90:
                    b1:d6:4d:71:34:08:d7:40:6b:5c:82:92:42:8f:28:
                    aa:60:cc:96:05:e8:38:dc:37:9b:0f:a2:b2:d3:df:
                    7f:c1:82:7e:12:a0:30:fb:6a:7b:83:9e:32:ff:d3:
                    41:12:b7:06:93:40:c4:2b:bf:af:5a:85:7c:17:b5:
                    0a:7f:7e:a5:b8:b7:d9:7e:44:6a:91:6d:5d:02:8d:
                    a8:57:02:d0:40:53:46:f4:14:24:b3:17:7c:b2:74:
                    12:fb:50:00:c9:ad:d0:8d:0e:11:c3:5f:03:d2:4c:
                    14:aa:ad:ab:77:f0:a0:e9:6a:be:bb:19:8d:09:68:
                    e6:11:27:05:be:44:c9:9a:8f:ce:43:bc:6a:c2:11:
                    7d:e9:f3:7d:0e:f9:b4:8c:77:b9:49:cf:3d:d8:98:
                    5e:f8:82:95:6d:7e:f2:36:20:67:89:b0:34:8e:c6:
                    9c:39:5c:5c:64:cc:5c:ba:de:47:8a:83:1b:00:4a:
                    90:9b:8d:ef:e5:75:1d:98:01:f2:09:7c:3c:81:b0:
                    c5:4f
                Exponent: 65537 (0x10001)
        X509v3 extensions:
            X509v3 Basic Constraints: 
                CA:FALSE
            Netscape Comment: 
                OpenSSL Generated Certificate
            X509v3 Subject Key Identifier: 
                F6:96:BA:D6:15:77:48:02:D7:E9:4D:FD:CC:2D:F2:31:64:AB:30:26
            X509v3 Authority Key Identifier: 
                DirName:/C=US/ST=Florida/L=Orlando/O=Gamma Consulting/OU=CA HQ/CN=tjjackson/emailAddress=sca@gc.com
                serial:BD:F0:F4:D0:5E:8D:73:2F

    Signature Algorithm: sha1WithRSAEncryption
        26:77:91:fd:1f:39:1e:c0:18:b0:13:20:db:4c:86:90:0a:4b:
        2f:9e:35:c2:0e:9b:56:22:d8:18:dc:0d:e5:20:50:0c:12:9c:
        ac:a6:25:3e:fc:b4:d9:af:52:be:d0:72:32:5d:ea:66:b0:1c:
        f6:b0:90:9c:cb:91:e6:c2:25:66:ea:ac:7f:f0:6a:b7:9c:9c:
        47:02:e8:27:00:07:33:73:ae:07:9c:26:8b:b2:f6:e9:99:69:
        1e:5e:8c:ff:0e:d1:0f:9e:a2:68:00:f9:c2:c3:9e:92:58:8e:
        45:d9:ed:1f:b5:0a:a7:9a:4d:69:1d:c4:29:d9:57:62:e5:57:
        45:30:c9:2e:0f:61:d2:de:70:e7:60:65:ee:91:6b:8a:16:1a:
        77:68:60:84:d0:63:bd:4a:75:15:21:0d:9c:0e:6c:08:70:36:
        5e:3b:8b:50:91:96:70:6f:5a:e6:54:9b:de:a2:bb:a2:22:01:
        9f:d2:f2:54:77:2d:4d:f5:b1:05:dc:dc:16:7c:e9:af:0a:5e:
        2d:ba:be:41:fc:80:d0:ed:2f:89:e4:0f:03:fd:09:55:58:82:
        2f:00:43:32:26:54:3f:d4:04:b3:01:b0:3e:c4:c0:9a:ed:1e:
        8c:14:97:26:8f:cb:53:2a:38:be:da:30:68:62:95:96:b5:7f:
        30:72:d0:47
-----BEGIN CERTIFICATE-----
MIIEkDCCA3igAwIBAgIBATANBgkqhkiG9w0BAQUFADCBizELMAkGA1UEBhMCVVMx
EDAOBgNVBAgMB0Zsb3JpZGExEDAOBgNVBAcMB09ybGFuZG8xGTAXBgNVBAoMEEdh
bW1hIENvbnN1bHRpbmcxDjAMBgNVBAsMBUNBIEhRMRIwEAYDVQQDDAl0amphY2tz
b24xGTAXBgkqhkiG9w0BCQEWCnNjYUBnYy5jb20wHhcNMTIwMzA2MTc0MzMwWhcN
MTMwMzA2MTc0MzMwWjB+MQswCQYDVQQGEwJVUzEQMA4GA1UECAwHRmxvcmlkYTEZ
MBcGA1UECgwQR2FtbWEgQ29uc3VsdGluZzEUMBIGA1UECwwLU2VydmVyIFJvb20x
EjAQBgNVBAMMCXRqamFja3NvbjEYMBYGCSqGSIb3DQEJARYJc3JAZ2MuY29tMIIB
IjANBgkqhkiG9w0BAQEFAAOCAQ8AMIIBCgKCAQEA8WR5TemFceEpfsv5fCvYaGq1
Z0Mf5hKxsRmC6S9KX8eB5Cdy/VTe3dVP14kL340m89m9KrjKfO2oYZCx1k1xNAjX
QGtcgpJCjyiqYMyWBeg43DebD6Ky099/wYJ+EqAw+2p7g54y/9NBErcGk0DEK7+v
WoV8F7UKf36luLfZfkRqkW1dAo2oVwLQQFNG9BQksxd8snQS+1AAya3QjQ4Rw18D
0kwUqq2rd/Cg6Wq+uxmNCWjmEScFvkTJmo/OQ7xqwhF96fN9Dvm0jHe5Sc892Jhe
+IKVbX7yNiBnibA0jsacOVxcZMxcut5HioMbAEqQm43v5XUdmAHyCXw8gbDFTwID
AQABo4IBCTCCAQUwCQYDVR0TBAIwADAsBglghkgBhvhCAQ0EHxYdT3BlblNTTCBH
ZW5lcmF0ZWQgQ2VydGlmaWNhdGUwHQYDVR0OBBYEFPaWutYVd0gC1+lN/cwt8jFk
qzAmMIGqBgNVHSMEgaIwgZ+hgZGkgY4wgYsxCzAJBgNVBAYTAlVTMRAwDgYDVQQI
DAdGbG9yaWRhMRAwDgYDVQQHDAdPcmxhbmRvMRkwFwYDVQQKDBBHYW1tYSBDb25z
dWx0aW5nMQ4wDAYDVQQLDAVDQSBIUTESMBAGA1UEAwwJdGpqYWNrc29uMRkwFwYJ
KoZIhvcNAQkBFgpzY2FAZ2MuY29tggkAvfD00F6Ncy8wDQYJKoZIhvcNAQEFBQAD
ggEBACZ3kf0fOR7AGLATINtMhpAKSy+eNcIOm1Yi2BjcDeUgUAwSnKymJT78tNmv
Ur7QcjJd6mawHPawkJzLkebCJWbqrH/warecnEcC6CcABzNzrgecJouy9umZaR5e
jP8O0Q+eomgA+cLDnpJYjkXZ7R+1CqeaTWkdxCnZV2LlV0UwyS4PYdLecOdgZe6R
a4oWGndoYITQY71KdRUhDZwObAhwNl47i1CRlnBvWuZUm96iu6IiAZ/S8lR3LU31
sQXc3BZ86a8KXi26vkH8gNDtL4nkDwP9CVVYgi8AQzImVD/UBLMBsD7EwJrtHowU
lyaPy1MqOL7aMGhilZa1fzBy0Ec=
-----END CERTIFICATE-----
