Certificate:
    Data:
        Version: 3 (0x2)
        Serial Number: 1 (0x1)
        Signature Algorithm: sha1WithRSAEncryption
        Issuer: C=US, ST=Florida, L=Orlando, O=Gamma Consulting, OU=Client CA HQ, CN=tjjackson/emailAddress=cch@gc.com
        Validity
            Not Before: Mar  6 18:10:31 2012 GMT
            Not After : Mar  6 18:10:31 2013 GMT
        Subject: C=US, ST=Florida, O=Gamma Consulting, OU=Client Office, CN=tjjackson/emailAddress=co@gc.com
        Subject Public Key Info:
            Public Key Algorithm: rsaEncryption
                Public-Key: (2048 bit)
                Modulus:
                    00:c8:23:51:f4:df:d1:89:7e:b6:23:73:37:78:aa:
                    34:08:05:f3:78:a3:fe:fb:05:75:3f:1b:0e:2c:f2:
                    f8:b2:b7:87:3d:23:4e:f9:90:c7:83:1f:a1:9a:9b:
                    d1:50:72:a2:57:ed:16:80:2a:4d:84:64:97:03:ff:
                    67:3c:a1:f5:cc:7e:c9:ea:9f:30:05:aa:0d:d3:2d:
                    b4:a9:ed:b9:59:89:eb:d2:70:ec:9a:5f:bf:f8:d4:
                    18:d3:9f:cd:92:c4:95:7f:3d:08:e7:51:1a:2a:f3:
                    99:54:d3:9b:b4:4b:bc:38:62:b9:34:4d:54:e1:a8:
                    bf:ca:d9:cf:2e:a0:02:2e:a9:48:92:3f:2b:32:1c:
                    e6:61:11:5e:3d:97:dd:09:cf:e8:1a:68:dd:06:1b:
                    97:37:ba:4e:c5:51:20:e9:6f:11:2a:53:1f:4d:2a:
                    84:06:8a:33:7b:68:e4:4d:93:aa:7f:3c:d3:2d:d8:
                    d8:a8:5f:9c:d1:61:4c:42:ee:10:b2:84:d2:84:d9:
                    cf:56:bd:a0:5f:d2:64:90:8c:17:1b:bf:af:0c:23:
                    1d:ab:c0:05:1b:cd:d3:d8:f1:45:6a:14:b7:2d:2c:
                    91:c0:8b:3e:62:a7:c8:30:ae:41:92:71:3f:1e:96:
                    5c:f7:c7:54:b9:1c:df:95:1e:9d:7b:55:59:86:3d:
                    d7:e3
                Exponent: 65537 (0x10001)
        X509v3 extensions:
            X509v3 Basic Constraints: 
                CA:FALSE
            Netscape Comment: 
                OpenSSL Generated Certificate
            X509v3 Subject Key Identifier: 
                82:FE:3F:33:04:A8:E2:63:CF:06:65:6B:82:0A:45:31:5E:47:E6:D3
            X509v3 Authority Key Identifier: 
                DirName:/C=US/ST=Florida/L=Orlando/O=Gamma Consulting/OU=Client CA HQ/CN=tjjackson/emailAddress=cch@gc.com
                serial:D8:AA:02:14:CA:7B:55:07

    Signature Algorithm: sha1WithRSAEncryption
        bf:29:2e:fd:22:7a:0a:fb:2c:e1:bd:a8:3f:90:ba:a1:50:c5:
        88:6a:d6:7a:57:da:6e:1e:18:26:44:d1:a1:18:a4:0c:7d:82:
        32:71:a3:e4:42:0d:d9:e5:cb:60:1d:89:8d:dc:9d:a0:b9:ee:
        98:d3:e1:9f:6c:40:5c:c5:c2:2d:6a:d0:fa:27:8f:ff:78:5e:
        04:4c:c5:e1:8f:56:4f:2a:0d:ae:be:90:19:ac:7f:ca:a1:7a:
        67:40:2a:da:2f:df:51:46:1b:95:aa:86:c5:69:87:76:12:c1:
        c5:09:59:5a:ac:78:9f:2d:64:33:1a:8c:d1:57:92:15:fa:51:
        ae:c6:7f:51:de:34:4d:66:4e:ed:32:af:ac:b5:7b:9f:14:3b:
        78:cf:0c:3b:c7:ef:5f:57:85:5e:83:b9:7a:c4:f1:3d:bd:66:
        ce:a2:ef:4d:0f:54:b7:56:32:89:e6:a4:52:b4:9d:e3:84:71:
        b5:23:ac:79:a6:f9:f7:66:5a:aa:ef:76:7e:f2:ca:94:d3:78:
        fe:5d:5a:63:e9:93:e6:c4:7c:6b:eb:0e:fb:50:34:87:78:93:
        48:69:2b:c3:b7:79:4b:fc:5d:e8:a5:4d:ee:72:6f:ea:46:cc:
        6d:59:8b:ae:31:6e:0d:f1:d9:4d:78:25:2c:66:b5:66:71:05:
        79:e6:f6:db
-----BEGIN CERTIFICATE-----
MIIEoTCCA4mgAwIBAgIBATANBgkqhkiG9w0BAQUFADCBkjELMAkGA1UEBhMCVVMx
EDAOBgNVBAgMB0Zsb3JpZGExEDAOBgNVBAcMB09ybGFuZG8xGTAXBgNVBAoMEEdh
bW1hIENvbnN1bHRpbmcxFTATBgNVBAsMDENsaWVudCBDQSBIUTESMBAGA1UEAwwJ
dGpqYWNrc29uMRkwFwYJKoZIhvcNAQkBFgpjY2hAZ2MuY29tMB4XDTEyMDMwNjE4
MTAzMVoXDTEzMDMwNjE4MTAzMVowgYAxCzAJBgNVBAYTAlVTMRAwDgYDVQQIDAdG
bG9yaWRhMRkwFwYDVQQKDBBHYW1tYSBDb25zdWx0aW5nMRYwFAYDVQQLDA1DbGll
bnQgT2ZmaWNlMRIwEAYDVQQDDAl0amphY2tzb24xGDAWBgkqhkiG9w0BCQEWCWNv
QGdjLmNvbTCCASIwDQYJKoZIhvcNAQEBBQADggEPADCCAQoCggEBAMgjUfTf0Yl+
tiNzN3iqNAgF83ij/vsFdT8bDizy+LK3hz0jTvmQx4MfoZqb0VByolftFoAqTYRk
lwP/Zzyh9cx+yeqfMAWqDdMttKntuVmJ69Jw7Jpfv/jUGNOfzZLElX89COdRGirz
mVTTm7RLvDhiuTRNVOGov8rZzy6gAi6pSJI/KzIc5mERXj2X3QnP6Bpo3QYblze6
TsVRIOlvESpTH00qhAaKM3to5E2Tqn880y3Y2KhfnNFhTELuELKE0oTZz1a9oF/S
ZJCMFxu/rwwjHavABRvN09jxRWoUty0skcCLPmKnyDCuQZJxPx6WXPfHVLkc35Ue
nXtVWYY91+MCAwEAAaOCARAwggEMMAkGA1UdEwQCMAAwLAYJYIZIAYb4QgENBB8W
HU9wZW5TU0wgR2VuZXJhdGVkIENlcnRpZmljYXRlMB0GA1UdDgQWBBSC/j8zBKji
Y88GZWuCCkUxXkfm0zCBsQYDVR0jBIGpMIGmoYGYpIGVMIGSMQswCQYDVQQGEwJV
UzEQMA4GA1UECAwHRmxvcmlkYTEQMA4GA1UEBwwHT3JsYW5kbzEZMBcGA1UECgwQ
R2FtbWEgQ29uc3VsdGluZzEVMBMGA1UECwwMQ2xpZW50IENBIEhRMRIwEAYDVQQD
DAl0amphY2tzb24xGTAXBgkqhkiG9w0BCQEWCmNjaEBnYy5jb22CCQDYqgIUyntV
BzANBgkqhkiG9w0BAQUFAAOCAQEAvyku/SJ6Cvss4b2oP5C6oVDFiGrWelfabh4Y
JkTRoRikDH2CMnGj5EIN2eXLYB2JjdydoLnumNPhn2xAXMXCLWrQ+ieP/3heBEzF
4Y9WTyoNrr6QGax/yqF6Z0Aq2i/fUUYblaqGxWmHdhLBxQlZWqx4ny1kMxqM0VeS
FfpRrsZ/Ud40TWZO7TKvrLV7nxQ7eM8MO8fvX1eFXoO5esTxPb1mzqLvTQ9Ut1Yy
ieakUrSd44RxtSOseab592Zaqu92fvLKlNN4/l1aY+mT5sR8a+sO+1A0h3iTSGkr
w7d5S/xd6KVN7nJv6kbMbVmLrjFuDfHZTXglLGa1ZnEFeeb22w==
-----END CERTIFICATE-----
